target datalayout = "e-m:e-p270:32:32-p271:32:32-p272:64:64-i64:64-i128:128-f80:128-n8:16:32:64-S128"
target triple = "x86_64-pc-linux-gnu"

; Function Attrs: nounwind uwtable
define ptr @Abc_NtkDarEnlarge(ptr noundef %0, i32 noundef %1, i32 noundef %2) #0 {
  %4 = alloca ptr, align 8
  %5 = alloca ptr, align 8
  %6 = alloca i32, align 4
  %7 = alloca i32, align 4
  %8 = alloca ptr, align 8
  %9 = alloca ptr, align 8
  %10 = alloca ptr, align 8
  store ptr %0, ptr %5, align 8
  store i32 %1, ptr %6, align 4
  store i32 %2, ptr %7, align 4
  %11 = load ptr, ptr %5, align 8
  %12 = call ptr @Abc_NtkToDar(ptr noundef %11, i32 noundef 0, i32 noundef 1)
  store ptr %12, ptr %9, align 8
  %13 = load ptr, ptr %9, align 8
  %14 = icmp eq ptr %13, null
  br i1 %14, label %15, label %16

15:                                               ; preds = %3
  store ptr null, ptr %4, align 8
  br label %26

16:                                               ; preds = %3
  %17 = load ptr, ptr %9, align 8
  store ptr %17, ptr %10, align 8
  %18 = load i32, ptr %6, align 4
  %19 = call ptr @Aig_ManFrames(ptr noundef %17, i32 noundef %18, i32 noundef 0, i32 noundef 1, i32 noundef 1, i32 noundef 1, ptr noundef null)
  store ptr %19, ptr %9, align 8
  %20 = load ptr, ptr %10, align 8
  call void @Aig_ManStop(ptr noundef %20)
  %21 = load ptr, ptr %5, align 8
  %22 = load ptr, ptr %9, align 8
  %23 = call ptr @Abc_NtkFromDarSeqSweep(ptr noundef %21, ptr noundef %22)
  store ptr %23, ptr %8, align 8
  %24 = load ptr, ptr %9, align 8
  call void @Aig_ManStop(ptr noundef %24)
  %25 = load ptr, ptr %8, align 8
  store ptr %25, ptr %4, align 8
  br label %26

26:                                               ; preds = %16, %15
  %27 = load ptr, ptr %4, align 8
  ret ptr %27
}