; Function Attrs: nounwind uwtable
define ptr @Abc_NtkDarEnlarge(ptr noundef %0, i32 noundef %1, i32 noundef %2) local_unnamed_addr #1 {
  %4 = tail call ptr @Abc_NtkToDar(ptr noundef %0, i32 noundef 0, i32 noundef 1)
  %5 = icmp eq ptr %4, null
  br i1 %5, label %9, label %6

6:                                                ; preds = %3
  %7 = tail call ptr @Aig_ManFrames(ptr noundef nonnull %4, i32 noundef %1, i32 noundef 0, i32 noundef 1, i32 noundef 1, i32 noundef 1, ptr noundef null) #19
  tail call void @Aig_ManStop(ptr noundef nonnull %4) #19
  %8 = tail call ptr @Abc_NtkFromDarSeqSweep(ptr noundef %0, ptr noundef %7)
  tail call void @Aig_ManStop(ptr noundef %7) #19
  br label %9

9:                                                ; preds = %3, %6
  %.0 = phi ptr [ %8, %6 ], [ null, %3 ]
  ret ptr %.0
}